; Function Attrs: mustprogress uwtable
define internal fastcc void @_ZN11trail_stack4pushI13set_ptr_trailIN12_GLOBAL__N_19path_treeEEEEvRKT_(ptr noundef nonnull align 8 dereferenceable(56) %this, ptr nocapture noundef nonnull readonly align 8 dereferenceable(16) %obj) unnamed_addr #3 align 2 {
entry:
  %m_region = getelementptr inbounds i8, ptr %this, i64 16
  %call.i = tail call noundef ptr @_ZN6region8allocateEm(ptr noundef nonnull align 8 dereferenceable(40) %m_region, i64 noundef 16)
  store ptr getelementptr inbounds ({ [5 x ptr] }, ptr @_ZTV13set_ptr_trailIN12_GLOBAL__N_19path_treeEE, i64 0, i32 0, i64 2), ptr %call.i, align 8
  %m_ptr.i = getelementptr inbounds i8, ptr %call.i, i64 8
  %m_ptr2.i = getelementptr inbounds i8, ptr %obj, i64 8
  %0 = load ptr, ptr %m_ptr2.i, align 8
  store ptr %0, ptr %m_ptr.i, align 8
  %1 = load ptr, ptr %this, align 8
  %cmp.i = icmp eq ptr %1, null
  br i1 %cmp.i, label %if.then.i, label %lor.lhs.false.i

lor.lhs.false.i:                                  ; preds = %entry
  %arrayidx.i = getelementptr inbounds i8, ptr %1, i64 -4
  %2 = load i32, ptr %arrayidx.i, align 4
  %arrayidx4.i = getelementptr inbounds i8, ptr %1, i64 -8
  %3 = load i32, ptr %arrayidx4.i, align 4
  %cmp5.i = icmp eq i32 %2, %3
  br i1 %cmp5.i, label %if.then.i, label %_ZN6vectorIP5trailLb0EjE9push_backEOS1_.exit

if.then.i:                                        ; preds = %lor.lhs.false.i, %entry
  tail call void @_ZN6vectorIP5trailLb0EjE13expand_vectorEv(ptr noundef nonnull align 8 dereferenceable(8) %this)
  %.pre.i = load ptr, ptr %this, align 8
  %arrayidx8.phi.trans.insert.i = getelementptr inbounds i8, ptr %.pre.i, i64 -4
  %.pre1.i = load i32, ptr %arrayidx8.phi.trans.insert.i, align 4
  br label %_ZN6vectorIP5trailLb0EjE9push_backEOS1_.exit

_ZN6vectorIP5trailLb0EjE9push_backEOS1_.exit:     ; preds = %lor.lhs.false.i, %if.then.i
  %4 = phi i32 [ %.pre1.i, %if.then.i ], [ %2, %lor.lhs.false.i ]
  %5 = phi ptr [ %.pre.i, %if.then.i ], [ %1, %lor.lhs.false.i ]
  %idx.ext.i = zext i32 %4 to i64
  %add.ptr.i = getelementptr inbounds ptr, ptr %5, i64 %idx.ext.i
  store ptr %call.i, ptr %add.ptr.i, align 8
  %6 = load ptr, ptr %this, align 8
  %arrayidx10.i = getelementptr inbounds i8, ptr %6, i64 -4
  %7 = load i32, ptr %arrayidx10.i, align 4
  %inc.i = add i32 %7, 1
  store i32 %inc.i, ptr %arrayidx10.i, align 4
  ret void
}